target datalayout = "e-m:e-p270:32:32-p271:32:32-p272:64:64-i64:64-i128:128-f80:128-n8:16:32:64-S128"
target triple = "x86_64-unknown-linux-gnu"

%"class.absl::lts_20230802::Status" = type { i64 }
%"class.grpc_event_engine::experimental::WakeupFd" = type { ptr, i32, i32 }

; Function Attrs: mustprogress nounwind uwtable
define linkonce_odr noundef i64 @_ZN4absl12lts_202308026Status16CodeToInlinedRepENS0_10StatusCodeE(i32 noundef %code) #6 comdat align 2 {
entry:
  %code.addr = alloca i32, align 4
  store i32 %code, ptr %code.addr, align 4
  %0 = load i32, ptr %code.addr, align 4
  %conv = sext i32 %0 to i64
  %shl = shl i64 %conv, 2
  ret i64 %shl
}

; Function Attrs: mustprogress nounwind uwtable
define linkonce_odr void @_ZN4absl12lts_202308026StatusC2Ev(ptr noundef nonnull align 8 dereferenceable(8) %this) unnamed_addr #6 comdat align 2 {
entry:
  %this.addr = alloca ptr, align 8
  store ptr %this, ptr %this.addr, align 8
  %this1 = load ptr, ptr %this.addr, align 8
  %rep_ = getelementptr inbounds %"class.absl::lts_20230802::Status", ptr %this1, i32 0, i32 0
  %call = call noundef i64 @_ZN4absl12lts_202308026Status16CodeToInlinedRepENS0_10StatusCodeE(i32 noundef 0)
  store i64 %call, ptr %rep_, align 8
  ret void
}

; Function Attrs: mustprogress uwtable
define linkonce_odr void @_ZN4absl12lts_202308028OkStatusEv(ptr noalias sret(%"class.absl::lts_20230802::Status") align 8 %agg.result) #4 comdat {
entry:
  %result.ptr = alloca ptr, align 8
  store ptr %agg.result, ptr %result.ptr, align 8
  call void @_ZN4absl12lts_202308026StatusC2Ev(ptr noundef nonnull align 8 dereferenceable(8) %agg.result)
  ret void
}

; Function Attrs: mustprogress nounwind uwtable
define linkonce_odr noundef i32 @_ZN17grpc_event_engine12experimental8WakeupFd7WriteFdEv(ptr noundef nonnull align 8 dereferenceable(16) %this) #6 comdat align 2 {
entry:
  %this.addr = alloca ptr, align 8
  store ptr %this, ptr %this.addr, align 8
  %this1 = load ptr, ptr %this.addr, align 8
  %write_fd_ = getelementptr inbounds %"class.grpc_event_engine::experimental::WakeupFd", ptr %this1, i32 0, i32 2
  %0 = load i32, ptr %write_fd_, align 4
  ret i32 %0
}

; Function Attrs: mustprogress uwtable
define void @_ZN17grpc_event_engine12experimental12PipeWakeupFd6WakeupEv(ptr noalias sret(%"class.absl::lts_20230802::Status") align 8 %agg.result, ptr noundef nonnull align 8 dereferenceable(16) %this) unnamed_addr #4 align 2 {
entry:
  %result.ptr = alloca ptr, align 8
  %this.addr = alloca ptr, align 8
  %c = alloca i8, align 1
  store ptr %agg.result, ptr %result.ptr, align 8
  store ptr %this, ptr %this.addr, align 8
  %this1 = load ptr, ptr %this.addr, align 8
  store i8 0, ptr %c, align 1
  br label %while.cond

while.cond:                                       ; preds = %while.body, %entry
  %call = call noundef i32 @_ZN17grpc_event_engine12experimental8WakeupFd7WriteFdEv(ptr noundef nonnull align 8 dereferenceable(16) %this1)
  %call2 = call i64 @write(i32 noundef %call, ptr noundef %c, i64 noundef 1)
  %cmp = icmp ne i64 %call2, 1
  br i1 %cmp, label %land.rhs, label %land.end

land.rhs:                                         ; preds = %while.cond
  %call3 = call ptr @__errno_location() #12
  %0 = load i32, ptr %call3, align 4
  %cmp4 = icmp eq i32 %0, 4
  br label %land.end

land.end:                                         ; preds = %land.rhs, %while.cond
  %1 = phi i1 [ false, %while.cond ], [ %cmp4, %land.rhs ]
  br i1 %1, label %while.body, label %while.end

while.body:                                       ; preds = %land.end
  br label %while.cond, !llvm.loop !6

while.end:                                        ; preds = %land.end
  call void @_ZN4absl12lts_202308028OkStatusEv(ptr sret(%"class.absl::lts_20230802::Status") align 8 %agg.result)
  ret void
}