; Function Attrs: mustprogress nofree uwtable
define void @_ZN17grpc_event_engine12experimental12PipeWakeupFd6WakeupEv(ptr noalias nocapture writeonly sret(%"class.absl::lts_20230802::Status") align 8 %agg.result, ptr nocapture noundef nonnull readonly align 8 dereferenceable(16) %this) unnamed_addr #7 align 2 {
entry:
  %c = alloca i8, align 1
  store i8 0, ptr %c, align 1
  %write_fd_.i = getelementptr inbounds i8, ptr %this, i64 12
  br label %while.cond

while.cond:                                       ; preds = %land.rhs, %entry
  %0 = load i32, ptr %write_fd_.i, align 4
  %call2 = call i64 @write(i32 noundef %0, ptr noundef nonnull %c, i64 noundef 1)
  %cmp.not = icmp eq i64 %call2, 1
  br i1 %cmp.not, label %while.end, label %land.rhs

land.rhs:                                         ; preds = %while.cond
  %call3 = tail call ptr @__errno_location() #13
  %1 = load i32, ptr %call3, align 4
  %cmp4 = icmp eq i32 %1, 4
  br i1 %cmp4, label %while.cond, label %while.end, !llvm.loop !18

while.end:                                        ; preds = %while.cond, %land.rhs
  store i64 0, ptr %agg.result, align 8, !alias.scope !19
  ret void
}